        .file   "example.cpp"
        .intel_syntax noprefix

        .text
.Ltext0:
        .file 0 "/app" "/app/example.cpp"
        .section        .text._ZNSt11char_traitsIcE6lengthEPKc,"axG",@progbits,_ZNSt11char_traitsIcE6lengthEPKc,comdat
        .weak   _ZNSt11char_traitsIcE6lengthEPKc
        .type   _ZNSt11char_traitsIcE6lengthEPKc, @function
_ZNSt11char_traitsIcE6lengthEPKc:
.LFB464:
        .file 1 "/opt/compiler-explorer/gcc-11.2.0/include/c++/11.2.0/bits/char_traits.h"
        .loc 1 365 7
        .cfi_startproc
        push    rbp     #
        .cfi_def_cfa_offset 16
        .cfi_offset 6, -16
        mov     rbp, rsp  #,
        .cfi_def_cfa_register 6
        sub     rsp, 32   #,
        mov     QWORD PTR -24[rbp], rdi   # __s, __s
        mov     rax, QWORD PTR -24[rbp]   # tmp85, __s
        mov     QWORD PTR -8[rbp], rax    # __s, tmp85
.LBB4:
        .loc 1 262 46
        mov     eax, 0    # D.62642,
.LBE4:
        .loc 1 368 2
        test    al, al  # D.62642
        je      .L3 #,
        .loc 1 369 52
        mov     rax, QWORD PTR -24[rbp]   # tmp86, __s
        mov     rdi, rax  #, tmp86
        call    _ZN9__gnu_cxx11char_traitsIcE6lengthEPKc        #
        .loc 1 369 56
        jmp     .L4       #
.L3:
        .loc 1 371 25
        mov     rax, QWORD PTR -24[rbp]   # tmp88, __s
        mov     rdi, rax  #, tmp88
        call    strlen@PLT      #
        .loc 1 371 29
        nop     
.L4:
        .loc 1 372 7
        leave   
        .cfi_def_cfa 7, 8
        ret     
        .cfi_endproc
.LFE464:
        .size   _ZNSt11char_traitsIcE6lengthEPKc, .-_ZNSt11char_traitsIcE6lengthEPKc
        .local  _ZStL8__ioinit
        .comm   _ZStL8__ioinit,1,1
        .section        .text._ZN13name_of_class15member_functionEv,"axG",@progbits,_ZN13name_of_class15member_functionEv,comdat
        .weak   _ZN13name_of_class15member_functionEv
        .type   _ZN13name_of_class15member_functionEv, @function
_ZN13name_of_class15member_functionEv:
.LFB2397:
        .file 2 "/app/example.cpp"
        .loc 2 55 13
        .cfi_startproc
        push    rbp     #
        .cfi_def_cfa_offset 16
        .cfi_offset 6, -16
        mov     rbp, rsp  #,
        .cfi_def_cfa_register 6
        .loc 2 57 1
        nop     
        pop     rbp       #
        .cfi_def_cfa 7, 8
        ret     
        .cfi_endproc
.LFE2397:
        .size   _ZN13name_of_class15member_functionEv, .-_ZN13name_of_class15member_functionEv
        .section        .text._ZN13name_of_class12my_function2Ev,"axG",@progbits,_ZN13name_of_class12my_function2Ev,comdat
        .align 2
        .weak   _ZN13name_of_class12my_function2Ev
        .type   _ZN13name_of_class12my_function2Ev, @function
_ZN13name_of_class12my_function2Ev:
.LFB2399:
        .loc 2 72 14
        .cfi_startproc
        push    rbp     #
        .cfi_def_cfa_offset 16
        .cfi_offset 6, -16
        mov     rbp, rsp  #,
        .cfi_def_cfa_register 6
        mov     QWORD PTR -8[rbp], rdi    # this, this
        .loc 2 74 1
        nop     
        pop     rbp       #
        .cfi_def_cfa 7, 8
        ret     
        .cfi_endproc
.LFE2399:
        .size   _ZN13name_of_class12my_function2Ev, .-_ZN13name_of_class12my_function2Ev
        .text
        .globl  _Z14multi_functionPv
        .type   _Z14multi_functionPv, @function
_Z14multi_functionPv:
.LFB2401:
        .loc 2 86 33
        .cfi_startproc
        push    rbp     #
        .cfi_def_cfa_offset 16
        .cfi_offset 6, -16
        mov     rbp, rsp  #,
        .cfi_def_cfa_register 6
        mov     QWORD PTR -8[rbp], rdi    # arg, arg
        .loc 2 88 1
        nop     
        pop     rbp       #
        .cfi_def_cfa 7, 8
        ret     
        .cfi_endproc
.LFE2401:
        .size   _Z14multi_functionPv, .-_Z14multi_functionPv
        .globl  _Z11my_functionv
        .type   _Z11my_functionv, @function
_Z11my_functionv:
.LFB2402:
        .loc 2 90 20
        .cfi_startproc
        push    rbp     #
        .cfi_def_cfa_offset 16
        .cfi_offset 6, -16
        mov     rbp, rsp  #,
        .cfi_def_cfa_register 6
        .loc 2 92 1
        nop     
        pop     rbp       #
        .cfi_def_cfa 7, 8
        ret     
        .cfi_endproc
.LFE2402:
        .size   _Z11my_functionv, .-_Z11my_functionv
        .globl  _Z19Function_Parametersii
        .type   _Z19Function_Parametersii, @function
_Z19Function_Parametersii:
.LFB2403:
        .loc 2 94 39
        .cfi_startproc
        push    rbp     #
        .cfi_def_cfa_offset 16
        .cfi_offset 6, -16
        mov     rbp, rsp  #,
        .cfi_def_cfa_register 6
        mov     DWORD PTR -4[rbp], edi    # y, y
        mov     DWORD PTR -8[rbp], esi    # h, h
        .loc 2 96 1
        nop     
        pop     rbp       #
        .cfi_def_cfa 7, 8
        ret     
        .cfi_endproc
.LFE2403:
        .size   _Z19Function_Parametersii, .-_Z19Function_Parametersii
        .section        .text._ZN13name_of_classC2Ev,"axG",@progbits,_ZN13name_of_classC5Ev,comdat
        .align 2
        .weak   _ZN13name_of_classC2Ev
        .type   _ZN13name_of_classC2Ev, @function
_ZN13name_of_classC2Ev:
.LFB2406:
        .loc 2 32 7
        .cfi_startproc
        push    rbp     #
        .cfi_def_cfa_offset 16
        .cfi_offset 6, -16
        mov     rbp, rsp  #,
        .cfi_def_cfa_register 6
        mov     QWORD PTR -8[rbp], rdi    # this, this
        .loc 2 32 7
        lea     rdx, _ZTV13name_of_class[rip+16]  # _1,
        mov     rax, QWORD PTR -8[rbp]    # tmp83, this
        mov     QWORD PTR [rax], rdx      # this_3(D)->_vptr.name_of_class, _1
        mov     rax, QWORD PTR -8[rbp]    # tmp84, this
        mov     DWORD PTR 12[rax], 10     # this_3(D)->member_variable,
        nop     
        pop     rbp       #
        .cfi_def_cfa 7, 8
        ret     
        .cfi_endproc
.LFE2406:
        .size   _ZN13name_of_classC2Ev, .-_ZN13name_of_classC2Ev
        .weak   _ZN13name_of_classC1Ev
        .set    _ZN13name_of_classC1Ev,_ZN13name_of_classC2Ev
        .section        .rodata
.LC2:
        .string "hello world"
.LC3:
        .string "Volvo"
.LC4:
        .string "BMW"
.LC5:
        .string "Ford"
.LC6:
        .string "Mazda"
.LC7:
        .string "Hello world\n"
.LC8:
        .string "Hello world"
.LC9:
        .string "%d"
.LC10:
        .string "\n"
.LC11:
        .string "input any text: "
.LC12:
        .string "the value of x is 15"
.LC13:
        .string "the value of x is 20"
.LC14:
        .string "the value of x is 35"
.LC15:
        .string "the value of x is 45"
.LC16:
        .string "the value of x is 64"
.LC17:
        .string "Pizza"
        .align 8
.LC18:
        .string "Access granted - you are old enough.\n"
        .align 8
.LC19:
        .string "Access denied - You must be at least 18 years old.\n"
.LC20:
        .string "Error number: "
        .text
        .globl  main
        .type   main, @function
main:
.LFB2404:
        .loc 2 102 1
        .cfi_startproc
        .cfi_personality 0x9b,DW.ref.__gxx_personality_v0
        .cfi_lsda 0x1b,.LLSDA2404
        push    rbp     #
        .cfi_def_cfa_offset 16
        .cfi_offset 6, -16
        mov     rbp, rsp  #,
        .cfi_def_cfa_register 6
        push    r13     #
        push    r12     #
        push    rbx     #
        sub     rsp, 376  #,
        .cfi_offset 13, -24
        .cfi_offset 12, -32
        .cfi_offset 3, -40
        mov     DWORD PTR -388[rbp], edi  # argc, argc
        mov     QWORD PTR -400[rbp], rsi  # argv, argv
        .loc 2 105 15
        lea     rax, -128[rbp]    # tmp134,
        mov     rdi, rax  #, tmp134
        call    _ZN13name_of_classC1Ev  #
        .loc 2 111 12
        call    _Z11my_functionv        #
        .loc 2 114 20
        mov     esi, 2    #,
        mov     edi, 1    #,
        call    _Z19Function_Parametersii       #
        .loc 2 117 31
        call    _ZN13name_of_class15member_functionEv   #
        .loc 2 124 5
        mov     DWORD PTR -132[rbp], 50   # x,
        .loc 2 125 8
        movsd   xmm0, QWORD PTR .LC0[rip]     # tmp135,
        movsd   QWORD PTR -56[rbp], xmm0      # q, tmp135
        .loc 2 126 7
        movss   xmm0, DWORD PTR .LC1[rip]     # tmp136,
        movss   DWORD PTR -60[rbp], xmm0      # b, tmp136
        .loc 2 127 6
        mov     BYTE PTR -61[rbp], 1      # sky_is_blue,
        .loc 2 128 6
        mov     BYTE PTR -62[rbp], 70     # d,
        .loc 2 129 21
        lea     rax, -110[rbp]    # tmp137,
        mov     rdi, rax  #, tmp137
        call    _ZNSaIcEC1Ev@PLT        #
        lea     rdx, -110[rbp]    # tmp138,
        lea     rax, -176[rbp]    # tmp139,
        lea     rcx, .LC2[rip]    # tmp140,
        mov     rsi, rcx  #, tmp140
        mov     rdi, rax  #, tmp139
.LEHB0:
        call    _ZNSt7__cxx1112basic_stringIcSt11char_traitsIcESaIcEEC1IS3_EEPKcRKS3_   #
.LEHE0:
        lea     rax, -110[rbp]    # tmp141,
        mov     rdi, rax  #, tmp141
        call    _ZNSaIcED1Ev@PLT        #
        .loc 2 130 55
        lea     r12, -304[rbp]    # _77,
        mov     ebx, 3    # _34,
        lea     rax, -109[rbp]    # tmp142,
        mov     rdi, rax  #, tmp142
        call    _ZNSaIcEC1Ev@PLT        #
        lea     rax, -109[rbp]    # tmp143,
        mov     rdx, rax  #, tmp143
        lea     rax, .LC3[rip]    # tmp144,
        mov     rsi, rax  #, tmp144
        mov     rdi, r12  #, _77
.LEHB1:
        call    _ZNSt7__cxx1112basic_stringIcSt11char_traitsIcESaIcEEC1IS3_EEPKcRKS3_   #
.LEHE1:
        .loc 2 130 55 is_stmt 0 discriminator 2
        lea     rax, -109[rbp]    # tmp145,
        mov     rdi, rax  #, tmp145
        call    _ZNSaIcED1Ev@PLT        #
        lea     r13, 32[r12]      # _84,
        sub     rbx, 1    # _34,
        lea     rax, -108[rbp]    # tmp146,
        mov     rdi, rax  #, tmp146
        call    _ZNSaIcEC1Ev@PLT        #
        lea     rax, -108[rbp]    # tmp147,
        mov     rdx, rax  #, tmp147
        lea     rax, .LC4[rip]    # tmp148,
        mov     rsi, rax  #, tmp148
        mov     rdi, r13  #, _84
.LEHB2:
        call    _ZNSt7__cxx1112basic_stringIcSt11char_traitsIcESaIcEEC1IS3_EEPKcRKS3_   #
.LEHE2:
        .loc 2 130 55 discriminator 4
        lea     rax, -108[rbp]    # tmp149,
        mov     rdi, rax  #, tmp149
        call    _ZNSaIcED1Ev@PLT        #
        add     r13, 32   # _90,
        sub     rbx, 1    # _34,
        lea     rax, -107[rbp]    # tmp150,
        mov     rdi, rax  #, tmp150
        call    _ZNSaIcEC1Ev@PLT        #
        lea     rax, -107[rbp]    # tmp151,
        mov     rdx, rax  #, tmp151
        lea     rax, .LC5[rip]    # tmp152,
        mov     rsi, rax  #, tmp152
        mov     rdi, r13  #, _90
.LEHB3:
        call    _ZNSt7__cxx1112basic_stringIcSt11char_traitsIcESaIcEEC1IS3_EEPKcRKS3_   #
.LEHE3:
        .loc 2 130 55 discriminator 6
        lea     rax, -107[rbp]    # tmp153,
        mov     rdi, rax  #, tmp153
        call    _ZNSaIcED1Ev@PLT        #
        add     r13, 32   # _96,
        sub     rbx, 1    # _34,
        lea     rax, -106[rbp]    # tmp154,
        mov     rdi, rax  #, tmp154
        call    _ZNSaIcEC1Ev@PLT        #
        lea     rax, -106[rbp]    # tmp155,
        mov     rdx, rax  #, tmp155
        lea     rax, .LC6[rip]    # tmp156,
        mov     rsi, rax  #, tmp156
        mov     rdi, r13  #, _96
.LEHB4:
        call    _ZNSt7__cxx1112basic_stringIcSt11char_traitsIcESaIcEEC1IS3_EEPKcRKS3_   #
.LEHE4:
        .loc 2 130 55 discriminator 8
        lea     rax, -106[rbp]    # tmp157,
        mov     rdi, rax  #, tmp157
        call    _ZNSaIcED1Ev@PLT        #
        .loc 2 131 6 is_stmt 1 discriminator 8
        mov     DWORD PTR -68[rbp], 36    # n,
        .loc 2 133 11 discriminator 8
        mov     DWORD PTR -72[rbp], 100   # v,
        .loc 2 139 1 discriminator 8
        mov     eax, DWORD PTR -132[rbp]  # x.1_4, x
        add     eax, 1    # _5,
        mov     DWORD PTR -132[rbp], eax  # x, _5
        .loc 2 140 2 discriminator 8
        mov     eax, DWORD PTR -132[rbp]  # x.2_6, x
        add     eax, 1    # _7,
        mov     DWORD PTR -132[rbp], eax  # x, _7
        .loc 2 142 1 discriminator 8
        mov     eax, DWORD PTR -132[rbp]  # x.3_8, x
        sub     eax, 1    # _9,
        mov     DWORD PTR -132[rbp], eax  # x, _9
        .loc 2 143 2 discriminator 8
        mov     eax, DWORD PTR -132[rbp]  # x.4_10, x
        sub     eax, 1    # _11,
        mov     DWORD PTR -132[rbp], eax  # x, _11
        .loc 2 146 3 discriminator 8
        mov     DWORD PTR -132[rbp], 1    # x,
        .loc 2 154 1 discriminator 8
        mov     eax, DWORD PTR -312[rbp]  # g.5_12, g
        .loc 2 157 2 discriminator 8
        mov     eax, DWORD PTR -312[rbp]  # g.6_13, g
        .loc 2 160 1 discriminator 8
        mov     eax, DWORD PTR -312[rbp]  # g.7_14, g
        .loc 2 161 1 discriminator 8
        mov     eax, DWORD PTR -312[rbp]  # g.8_15, g
        .loc 2 164 1 discriminator 8
        mov     eax, DWORD PTR -312[rbp]  # g.9_16, g
        .loc 2 167 1 discriminator 8
        mov     eax, DWORD PTR -312[rbp]  # g.10_17, g
        .loc 2 170 1 discriminator 8
        mov     eax, DWORD PTR -312[rbp]  # g.11_18, g
        .loc 2 186 14 discriminator 8
        lea     rax, .LC7[rip]    # tmp158,
        mov     rsi, rax  #, tmp158
        lea     rax, _ZSt4cout[rip]       # tmp159,
        mov     rdi, rax  #, tmp159
.LEHB5:
        call    _ZStlsISt11char_traitsIcEERSt13basic_ostreamIcT_ES5_PKc@PLT     #
        .loc 2 187 8
        lea     rax, .LC8[rip]    # tmp160,
        mov     rdi, rax  #, tmp160
        call    puts@PLT        #
        .loc 2 192 8
        mov     eax, DWORD PTR -132[rbp]  # x.12_19, x
        mov     esi, eax  #, x.12_19
        lea     rax, .LC9[rip]    # tmp161,
        mov     rdi, rax  #, tmp161
        mov     eax, 0    #,
        call    printf@PLT      #
        .loc 2 193 11
        mov     eax, DWORD PTR -132[rbp]  # x.13_20, x
        .loc 2 193 14
        mov     esi, eax  #, x.13_20
        lea     rax, _ZSt4cout[rip]       # tmp162,
        mov     rdi, rax  #, tmp162
        call    _ZNSolsEi@PLT   #
        .loc 2 197 14
        lea     rax, .LC10[rip]   # tmp163,
        mov     rsi, rax  #, tmp163
        lea     rax, _ZSt4cout[rip]       # tmp164,
        mov     rdi, rax  #, tmp164
        call    _ZStlsISt11char_traitsIcEERSt13basic_ostreamIcT_ES5_PKc@PLT     #
        .loc 2 201 14
        lea     rax, .LC11[rip]   # tmp165,
        mov     rsi, rax  #, tmp165
        lea     rax, _ZSt4cout[rip]       # tmp166,
        mov     rdi, rax  #, tmp166
        call    _ZStlsISt11char_traitsIcEERSt13basic_ostreamIcT_ES5_PKc@PLT     #
        .loc 2 202 7
        lea     rax, -132[rbp]    # tmp167,
        mov     rsi, rax  #, tmp167
        lea     rax, .LC9[rip]    # tmp168,
        mov     rdi, rax  #, tmp168
        mov     eax, 0    #,
        call    __isoc99_scanf@PLT      #
        .loc 2 203 13
        lea     rax, -132[rbp]    # tmp169,
        mov     rsi, rax  #, tmp169
        lea     rax, _ZSt3cin[rip]        # tmp170,
        mov     rdi, rax  #, tmp170
        call    _ZNSirsERi@PLT  #
        .loc 2 208 7
        mov     eax, DWORD PTR -312[rbp]  # g.15_21, g
        cmp     eax, 10   # g.15_21,
        sete    al      #, retval.14_120
        .loc 2 208 1
        test    al, al  # retval.14_120
        jne     .L12      #,
        .loc 2 212 12
        mov     eax, DWORD PTR -312[rbp]  # g.17_22, g
        cmp     eax, 20   # g.17_22,
.L12:
        .loc 2 223 1
        mov     eax, DWORD PTR -132[rbp]  # x.18_23, x
        cmp     eax, 64   # x.18_23,
        je      .L13        #,
        cmp     eax, 64   # x.18_23,
        jg      .L14        #,
        cmp     eax, 45   # x.18_23,
        je      .L15        #,
        cmp     eax, 45   # x.18_23,
        jg      .L14        #,
        cmp     eax, 35   # x.18_23,
        je      .L16        #,
        cmp     eax, 35   # x.18_23,
        jg      .L14        #,
        cmp     eax, 15   # x.18_23,
        je      .L17        #,
        cmp     eax, 20   # x.18_23,
        je      .L18        #,
        jmp     .L14      #
.L17:
        .loc 2 225 10
        lea     rax, .LC12[rip]   # tmp171,
        mov     rdi, rax  #, tmp171
        mov     eax, 0    #,
        call    printf@PLT      #
.L18:
        .loc 2 227 10
        lea     rax, .LC13[rip]   # tmp172,
        mov     rdi, rax  #, tmp172
        mov     eax, 0    #,
        call    printf@PLT      #
.L16:
        .loc 2 229 10
        lea     rax, .LC14[rip]   # tmp173,
        mov     rdi, rax  #, tmp173
        mov     eax, 0    #,
        call    printf@PLT      #
.L15:
        .loc 2 231 10
        lea     rax, .LC15[rip]   # tmp174,
        mov     rdi, rax  #, tmp174
        mov     eax, 0    #,
        call    printf@PLT      #
.L13:
        .loc 2 233 10
        lea     rax, .LC16[rip]   # tmp175,
        mov     rdi, rax  #, tmp175
        mov     eax, 0    #,
        call    printf@PLT      #
        .loc 2 236 5
        nop     
.L14:
        .loc 2 245 5
        mov     DWORD PTR -36[rbp], 0     # j,
        .loc 2 247 1
        jmp     .L19      #
.L20:
        .loc 2 249 2
        add     DWORD PTR -36[rbp], 1     # j,
.L19:
        .loc 2 247 9
        cmp     DWORD PTR -36[rbp], 49    # j,
        jle     .L20      #,
.LBB7:
        .loc 2 254 10
        mov     DWORD PTR -40[rbp], 0     # i,
        .loc 2 254 1
        jmp     .L21      #
.L22:
        .loc 2 255 20
        mov     eax, DWORD PTR -40[rbp]   # tmp176, i
        mov     esi, eax  #, tmp176
        lea     rax, _ZSt4cout[rip]       # tmp177,
        mov     rdi, rax  #, tmp177
        call    _ZNSolsEi@PLT   #
        mov     rdx, rax  # _24,
        lea     rax, .LC10[rip]   # tmp178,
        mov     rsi, rax  #, tmp178
        mov     rdi, rdx  #, _24
        call    _ZStlsISt11char_traitsIcEERSt13basic_ostreamIcT_ES5_PKc@PLT     #
        .loc 2 254 1 discriminator 2
        add     DWORD PTR -40[rbp], 1     # i,
.L21:
        .loc 2 254 19 discriminator 1
        cmp     DWORD PTR -40[rbp], 4     # i,
        jle     .L22      #,
.LBE7:
        .loc 2 260 5
        mov     DWORD PTR -44[rbp], 0     # z,
.L23:
        .loc 2 262 16
        mov     eax, DWORD PTR -44[rbp]   # tmp179, z
        mov     esi, eax  #, tmp179
        lea     rax, _ZSt4cout[rip]       # tmp180,
        mov     rdi, rax  #, tmp180
        call    _ZNSolsEi@PLT   #
        mov     rdx, rax  # _25,
        lea     rax, .LC10[rip]   # tmp181,
        mov     rsi, rax  #, tmp181
        mov     rdi, rdx  #, _25
        call    _ZStlsISt11char_traitsIcEERSt13basic_ostreamIcT_ES5_PKc@PLT     #
        .loc 2 263 4
        add     DWORD PTR -44[rbp], 1     # z,
        .loc 2 265 10
        cmp     DWORD PTR -44[rbp], 4     # z,
        jle     .L23      #,
.LBB8:
        .loc 2 269 10
        mov     DWORD PTR -48[rbp], 0     # m,
        .loc 2 269 1
        jmp     .L24      #
.L27:
        .loc 2 270 3
        cmp     DWORD PTR -48[rbp], 4     # m,
        je      .L62        #,
        .loc 2 273 16
        mov     eax, DWORD PTR -48[rbp]   # tmp182, m
        mov     esi, eax  #, tmp182
        lea     rax, _ZSt4cout[rip]       # tmp183,
        mov     rdi, rax  #, tmp183
        call    _ZNSolsEi@PLT   #
        mov     rdx, rax  # _26,
        lea     rax, .LC10[rip]   # tmp184,
        mov     rsi, rax  #, tmp184
        mov     rdi, rdx  #, _26
        call    _ZStlsISt11char_traitsIcEERSt13basic_ostreamIcT_ES5_PKc@PLT     #
        jmp     .L26      #
.L62:
        .loc 2 271 5
        nop     
.L26:
        .loc 2 269 1 discriminator 2
        add     DWORD PTR -48[rbp], 1     # m,
.L24:
        .loc 2 269 19 discriminator 1
        cmp     DWORD PTR -48[rbp], 9     # m,
        jle     .L27      #,
.LBE8:
        .loc 2 278 6
        nop     
.L28:
        .loc 2 300 8
        lea     rax, -132[rbp]    # tmp185,
        mov     rsi, rax  #, tmp185
        lea     rax, .LC9[rip]    # tmp186,
        mov     rdi, rax  #, tmp186
        mov     eax, 0    #,
        call    printf@PLT      #
        .loc 2 304 6
        lea     rax, -132[rbp]    # tmp187,
        mov     QWORD PTR -80[rbp], rax   # p, tmp187
        .loc 2 305 14
        mov     rax, QWORD PTR -80[rbp]   # tmp188, p
        mov     rsi, rax  #, tmp188
        lea     rax, _ZSt4cout[rip]       # tmp189,
        mov     rdi, rax  #, tmp189
        call    _ZNSolsEPKv@PLT #
.LEHE5:
        .loc 2 312 6
        mov     QWORD PTR -88[rbp], 0     # null_pointer,
        .loc 2 315 20
        lea     rax, -105[rbp]    # tmp190,
        mov     rdi, rax  #, tmp190
        call    _ZNSaIcEC1Ev@PLT        #
        lea     rdx, -105[rbp]    # tmp191,
        lea     rax, -352[rbp]    # tmp192,
        lea     rcx, .LC17[rip]   # tmp193,
        mov     rsi, rcx  #, tmp193
        mov     rdi, rax  #, tmp192
.LEHB6:
        call    _ZNSt7__cxx1112basic_stringIcSt11char_traitsIcESaIcEEC1IS3_EEPKcRKS3_   #
.LEHE6:
        lea     rax, -105[rbp]    # tmp194,
        mov     rdi, rax  #, tmp194
        call    _ZNSaIcED1Ev@PLT        #
        .loc 2 316 14
        lea     rax, -352[rbp]    # tmp195,
        mov     QWORD PTR -96[rbp], rax   # meal, tmp195
        .loc 2 319 15
        mov     rax, QWORD PTR -80[rbp]   # tmp196, p
        mov     eax, DWORD PTR [rax]      # _27, *p_136
        mov     esi, eax  #, _27
        lea     rax, _ZSt4cout[rip]       # tmp197,
        mov     rdi, rax  #, tmp197
.LEHB7:
        call    _ZNSolsEi@PLT   #
        .loc 2 322 14
        lea     rax, .LC10[rip]   # tmp198,
        mov     rsi, rax  #, tmp198
        lea     rax, _ZSt4cout[rip]       # tmp199,
        mov     rdi, rax  #, tmp199
        call    _ZStlsISt11char_traitsIcEERSt13basic_ostreamIcT_ES5_PKc@PLT     #
.LEHE7:
.LBB10:
        .loc 2 328 7
        mov     DWORD PTR -100[rbp], 15   # age,
        .loc 2 329 3
        cmp     DWORD PTR -100[rbp], 17   # age,
        jle     .L29      #,
        .loc 2 330 18
        lea     rax, .LC18[rip]   # tmp200,
        mov     rsi, rax  #, tmp200
        lea     rax, _ZSt4cout[rip]       # tmp201,
        mov     rdi, rax  #, tmp201
.LEHB8:
        call    _ZStlsISt11char_traitsIcEERSt13basic_ostreamIcT_ES5_PKc@PLT     #
        jmp     .L30      #
.L29:
        .loc 2 332 11
        mov     edi, 4    #,
        call    __cxa_allocate_exception@PLT    #
        .loc 2 332 5
        mov     DWORD PTR [rax], 505      # MEM[(int *)_148],
        .loc 2 332 11
        mov     edx, 0    #,
        lea     rcx, _ZTIi[rip]   # tmp203,
        mov     rsi, rcx  #, tmp203
        mov     rdi, rax  #, _148
        call    __cxa_throw@PLT #
.LEHE8:
.L30:
.LBE10:
        .loc 2 347 15
        lea     rax, -360[rbp]    # tmp204,
        mov     ecx, 0    #,
        lea     rdx, _Z14multi_functionPv[rip]    # tmp205,
        mov     esi, 0    #,
        mov     rdi, rax  #, tmp204
        call    pthread_create@PLT      #
        .loc 2 348 15
        lea     rax, -368[rbp]    # tmp206,
        mov     ecx, 0    #,
        lea     rdx, _Z14multi_functionPv[rip]    # tmp207,
        mov     esi, 0    #,
        mov     rdi, rax  #, tmp206
        call    pthread_create@PLT      #
        .loc 2 349 15
        lea     rax, -376[rbp]    # tmp208,
        mov     ecx, 0    #,
        lea     rdx, _Z14multi_functionPv[rip]    # tmp209,
        mov     esi, 0    #,
        mov     rdi, rax  #, tmp208
        call    pthread_create@PLT      #
        .loc 2 350 15
        lea     rax, -384[rbp]    # tmp210,
        mov     ecx, 0    #,
        lea     rdx, _Z14multi_functionPv[rip]    # tmp211,
        mov     esi, 0    #,
        mov     rdi, rax  #, tmp210
        call    pthread_create@PLT      #
        .loc 2 352 13
        mov     rax, QWORD PTR -360[rbp]  # t1.19_30, t1
        mov     esi, 0    #,
        mov     rdi, rax  #, t1.19_30
.LEHB9:
        call    pthread_join@PLT        #
        .loc 2 353 13
        mov     rax, QWORD PTR -368[rbp]  # t2.20_31, t2
        mov     esi, 0    #,
        mov     rdi, rax  #, t2.20_31
        call    pthread_join@PLT        #
        .loc 2 354 13
        mov     rax, QWORD PTR -376[rbp]  # t3.21_32, t3
        mov     esi, 0    #,
        mov     rdi, rax  #, t3.21_32
        call    pthread_join@PLT        #
        .loc 2 355 13
        mov     rax, QWORD PTR -384[rbp]  # t4.22_33, t4
        mov     esi, 0    #,
        mov     rdi, rax  #, t4.22_33
        call    pthread_join@PLT        #
.LEHE9:
        .loc 2 372 8
        mov     r12d, 0   # _169,
        .loc 2 315 20
        lea     rax, -352[rbp]    # tmp212,
        mov     rdi, rax  #, tmp212
        call    _ZNSt7__cxx1112basic_stringIcSt11char_traitsIcESaIcEED1Ev@PLT   #
        .loc 2 130 55
        lea     rbx, -304[rbp]    # _36,
        sub     rbx, -128 # _36,
.L32:
        .loc 2 373 1
        lea     rax, -304[rbp]    # tmp213,
        cmp     rbx, rax  # _36, tmp213
        je      .L63        #,
        .loc 2 130 55
        sub     rbx, 32   # _36,
        mov     rdi, rbx  #, _36
        call    _ZNSt7__cxx1112basic_stringIcSt11char_traitsIcESaIcEED1Ev@PLT   #
        .loc 2 373 1
        jmp     .L32      #
.L63:
        .loc 2 130 55
        nop     
        .loc 2 373 1
        lea     rax, -176[rbp]    # tmp214,
        mov     rdi, rax  #, tmp214
        call    _ZNSt7__cxx1112basic_stringIcSt11char_traitsIcESaIcEED1Ev@PLT   #
        mov     eax, r12d # <retval>, _169
        jmp     .L61      #
.L51:
        mov     rbx, rax  # tmp217,
        lea     rax, -110[rbp]    # tmp216,
        mov     rdi, rax  #, tmp216
        call    _ZNSaIcED1Ev@PLT        #
        mov     rax, rbx  # D.62647, tmp217
        mov     rdi, rax  #, D.62647
.LEHB10:
        call    _Unwind_Resume@PLT      #
.LEHE10:
.L52:
        .loc 2 130 55
        mov     r13, rax  # tmp220,
        lea     rax, -109[rbp]    # tmp218,
        mov     rdi, rax  #, tmp218
        call    _ZNSaIcED1Ev@PLT        #
        jmp     .L36      #
.L53:
        mov     r13, rax  # tmp224,
        lea     rax, -108[rbp]    # tmp223,
        mov     rdi, rax  #, tmp223
        call    _ZNSaIcED1Ev@PLT        #
        jmp     .L36      #
.L54:
        mov     r13, rax  # tmp227,
        lea     rax, -107[rbp]    # tmp226,
        mov     rdi, rax  #, tmp226
        call    _ZNSaIcED1Ev@PLT        #
        jmp     .L36      #
.L55:
        mov     r13, rax  # tmp230,
        lea     rax, -106[rbp]    # tmp229,
        mov     rdi, rax  #, tmp229
        call    _ZNSaIcED1Ev@PLT        #
.L36:
        test    r12, r12        # _77
        je      .L40        #,
        mov     eax, 3    # tmp232,
        sub     rax, rbx  # _1, _34
        sal     rax, 5    # _3,
        lea     rbx, [r12+rax]    # _35,
.L41:
        cmp     rbx, r12  # _35, _77
        je      .L40        #,
        sub     rbx, 32   # _35,
        mov     rdi, rbx  #, _35
        call    _ZNSt7__cxx1112basic_stringIcSt11char_traitsIcESaIcEED1Ev@PLT   #
        jmp     .L41      #
.L40:
        mov     rbx, r13  # tmp233, tmp219
        jmp     .L42      #
.L57:
        mov     rbx, rax  # tmp237,
        lea     rax, -105[rbp]    # tmp235,
        mov     rdi, rax  #, tmp235
        call    _ZNSaIcED1Ev@PLT        #
        mov     r12, rbx  # tmp236, tmp237
        jmp     .L44      #
.L59:
        .loc 2 335 1
        cmp     rdx, 1    # D.62646,
        je      .L46        #,
        mov     rbx, rax  # tmp241, tmp242
        jmp     .L47      #
.L46:
.LBB11:
        .loc 2 335 12 discriminator 1
        mov     rdi, rax  #, _28
        call    __cxa_begin_catch@PLT   #
        mov     eax, DWORD PTR [rax]      # tmp244, *_153
        mov     DWORD PTR -104[rbp], eax  # myNum, tmp244
        .loc 2 337 16 discriminator 1
        lea     rax, .LC19[rip]   # tmp245,
        mov     rsi, rax  #, tmp245
        lea     rax, _ZSt4cout[rip]       # tmp246,
        mov     rdi, rax  #, tmp246
.LEHB11:
        call    _ZStlsISt11char_traitsIcEERSt13basic_ostreamIcT_ES5_PKc@PLT     #
        .loc 2 338 16
        lea     rax, .LC20[rip]   # tmp247,
        mov     rsi, rax  #, tmp247
        lea     rax, _ZSt4cout[rip]       # tmp248,
        mov     rdi, rax  #, tmp248
        call    _ZStlsISt11char_traitsIcEERSt13basic_ostreamIcT_ES5_PKc@PLT     #
        mov     rdx, rax  # _29,
        .loc 2 338 36
        mov     eax, DWORD PTR -104[rbp]  # tmp249, myNum
        mov     esi, eax  #, tmp249
        mov     rdi, rdx  #, _29
        call    _ZNSolsEi@PLT   #
.LEHE11:
        .loc 2 339 1
        call    __cxa_end_catch@PLT     #
        jmp     .L30      #
.L60:
        mov     rbx, rax  # tmp250,
        call    __cxa_end_catch@PLT     #
        jmp     .L47      #
.L58:
.LBE11:
        .loc 2 315 20
        mov     rbx, rax  # tmp241,
.L47:
        lea     rax, -352[rbp]    # tmp252,
        mov     rdi, rax  #, tmp252
        call    _ZNSt7__cxx1112basic_stringIcSt11char_traitsIcESaIcEED1Ev@PLT   #
        mov     r12, rbx  # tmp236, tmp241
        jmp     .L44      #
.L56:
        .loc 2 130 55
        mov     r12, rax  # tmp236,
.L44:
        lea     rbx, -304[rbp]    # _37,
        sub     rbx, -128 # _37,
.L50:
        .loc 2 373 1
        lea     rax, -304[rbp]    # tmp253,
        cmp     rbx, rax  # _37, tmp253
        je      .L64        #,
        .loc 2 130 55
        sub     rbx, 32   # _37,
        mov     rdi, rbx  #, _37
        call    _ZNSt7__cxx1112basic_stringIcSt11char_traitsIcESaIcEED1Ev@PLT   #
        .loc 2 373 1
        jmp     .L50      #
.L64:
        .loc 2 130 55
        nop     
        mov     rbx, r12  # tmp233, tmp236
.L42:
        .loc 2 373 1
        lea     rax, -176[rbp]    # tmp254,
        mov     rdi, rax  #, tmp254
        call    _ZNSt7__cxx1112basic_stringIcSt11char_traitsIcESaIcEED1Ev@PLT   #
        mov     rax, rbx  # D.62648, tmp233
        mov     rdi, rax  #, D.62648
.LEHB12:
        call    _Unwind_Resume@PLT      #
.LEHE12:
.L61:
        add     rsp, 376  #,
        pop     rbx       #
        pop     r12       #
        pop     r13       #
        pop     rbp       #
        .cfi_def_cfa 7, 8
        ret     
        .cfi_endproc
.LFE2404:
        .globl  __gxx_personality_v0
        .section        .gcc_except_table,"a",@progbits
        .align 4
.LLSDA2404:
        .byte   0xff
        .byte   0x9b
        .uleb128 .LLSDATT2404-.LLSDATTD2404
.LLSDATTD2404:
        .byte   0x1
        .uleb128 .LLSDACSE2404-.LLSDACSB2404
.LLSDACSB2404:
        .uleb128 .LEHB0-.LFB2404
        .uleb128 .LEHE0-.LEHB0
        .uleb128 .L51-.LFB2404
        .uleb128 0
        .uleb128 .LEHB1-.LFB2404
        .uleb128 .LEHE1-.LEHB1
        .uleb128 .L52-.LFB2404
        .uleb128 0
        .uleb128 .LEHB2-.LFB2404
        .uleb128 .LEHE2-.LEHB2
        .uleb128 .L53-.LFB2404
        .uleb128 0
        .uleb128 .LEHB3-.LFB2404
        .uleb128 .LEHE3-.LEHB3
        .uleb128 .L54-.LFB2404
        .uleb128 0
        .uleb128 .LEHB4-.LFB2404
        .uleb128 .LEHE4-.LEHB4
        .uleb128 .L55-.LFB2404
        .uleb128 0
        .uleb128 .LEHB5-.LFB2404
        .uleb128 .LEHE5-.LEHB5
        .uleb128 .L56-.LFB2404
        .uleb128 0
        .uleb128 .LEHB6-.LFB2404
        .uleb128 .LEHE6-.LEHB6
        .uleb128 .L57-.LFB2404
        .uleb128 0
        .uleb128 .LEHB7-.LFB2404
        .uleb128 .LEHE7-.LEHB7
        .uleb128 .L58-.LFB2404
        .uleb128 0
        .uleb128 .LEHB8-.LFB2404
        .uleb128 .LEHE8-.LEHB8
        .uleb128 .L59-.LFB2404
        .uleb128 0x3
        .uleb128 .LEHB9-.LFB2404
        .uleb128 .LEHE9-.LEHB9
        .uleb128 .L58-.LFB2404
        .uleb128 0
        .uleb128 .LEHB10-.LFB2404
        .uleb128 .LEHE10-.LEHB10
        .uleb128 0
        .uleb128 0
        .uleb128 .LEHB11-.LFB2404
        .uleb128 .LEHE11-.LEHB11
        .uleb128 .L60-.LFB2404
        .uleb128 0
        .uleb128 .LEHB12-.LFB2404
        .uleb128 .LEHE12-.LEHB12
        .uleb128 0
        .uleb128 0
.LLSDACSE2404:
        .byte   0
        .byte   0
        .byte   0x1
        .byte   0x7d
        .align 4
        .long   DW.ref._ZTIi-.
.LLSDATT2404:
        .text
        .size   main, .-main
        .section        .text._ZN9__gnu_cxx11char_traitsIcE2eqERKcS3_,"axG",@progbits,_ZN9__gnu_cxx11char_traitsIcE2eqERKcS3_,comdat
        .weak   _ZN9__gnu_cxx11char_traitsIcE2eqERKcS3_
        .type   _ZN9__gnu_cxx11char_traitsIcE2eqERKcS3_, @function
_ZN9__gnu_cxx11char_traitsIcE2eqERKcS3_:
.LFB2409:
        .loc 1 106 7
        .cfi_startproc
        push    rbp     #
        .cfi_def_cfa_offset 16
        .cfi_offset 6, -16
        mov     rbp, rsp  #,
        .cfi_def_cfa_register 6
        mov     QWORD PTR -8[rbp], rdi    # __c1, __c1
        mov     QWORD PTR -16[rbp], rsi   # __c2, __c2
        .loc 1 107 21
        mov     rax, QWORD PTR -8[rbp]    # tmp86, __c1
        movzx   edx, BYTE PTR [rax]   # _1, *__c1_4(D)
        mov     rax, QWORD PTR -16[rbp]   # tmp87, __c2
        movzx   eax, BYTE PTR [rax]   # _2, *__c2_5(D)
        .loc 1 107 24
        cmp     dl, al    # _1, _2
        sete    al      #, _6
        .loc 1 107 30
        pop     rbp       #
        .cfi_def_cfa 7, 8
        ret     
        .cfi_endproc
.LFE2409:
        .size   _ZN9__gnu_cxx11char_traitsIcE2eqERKcS3_, .-_ZN9__gnu_cxx11char_traitsIcE2eqERKcS3_
        .section        .text._ZN9__gnu_cxx11char_traitsIcE6lengthEPKc,"axG",@progbits,_ZN9__gnu_cxx11char_traitsIcE6lengthEPKc,comdat
        .align 2
        .weak   _ZN9__gnu_cxx11char_traitsIcE6lengthEPKc
        .type   _ZN9__gnu_cxx11char_traitsIcE6lengthEPKc, @function
_ZN9__gnu_cxx11char_traitsIcE6lengthEPKc:
.LFB2408:
        .loc 1 167 5
        .cfi_startproc
        push    rbp     #
        .cfi_def_cfa_offset 16
        .cfi_offset 6, -16
        mov     rbp, rsp  #,
        .cfi_def_cfa_register 6
        sub     rsp, 32   #,
        mov     QWORD PTR -24[rbp], rdi   # __p, __p
        .loc 1 170 19
        mov     QWORD PTR -8[rbp], 0      # __i,
        .loc 1 171 7
        jmp     .L68      #
.L69:
        .loc 1 172 9
        add     QWORD PTR -8[rbp], 1      # __i,
.L68:
        .loc 1 171 17
        mov     BYTE PTR -9[rbp], 0       # D.57187,
        .loc 1 171 21
        mov     rdx, QWORD PTR -24[rbp]   # tmp87, __p
        mov     rax, QWORD PTR -8[rbp]    # tmp88, __i
        add     rdx, rax  # _1, tmp88
        .loc 1 171 17
        lea     rax, -9[rbp]      # tmp89,
        mov     rsi, rax  #, tmp89
        mov     rdi, rdx  #, _1
        call    _ZN9__gnu_cxx11char_traitsIcE2eqERKcS3_ #
        xor     eax, 1    # retval.25_10,
        test    al, al  # retval.25_10
        jne     .L69      #,
        .loc 1 173 14
        mov     rax, QWORD PTR -8[rbp]    # _12, __i
        .loc 1 174 5
        leave   
        .cfi_def_cfa 7, 8
        ret     
        .cfi_endproc
.LFE2408:
        .size   _ZN9__gnu_cxx11char_traitsIcE6lengthEPKc, .-_ZN9__gnu_cxx11char_traitsIcE6lengthEPKc
        .section        .text._ZNSt7__cxx1112basic_stringIcSt11char_traitsIcESaIcEE12_Alloc_hiderD2Ev,"axG",@progbits,_ZNSt7__cxx1112basic_stringIcSt11char_traitsIcESaIcEE12_Alloc_hiderD5Ev,comdat
        .align 2
        .weak   _ZNSt7__cxx1112basic_stringIcSt11char_traitsIcESaIcEE12_Alloc_hiderD2Ev
        .type   _ZNSt7__cxx1112basic_stringIcSt11char_traitsIcESaIcEE12_Alloc_hiderD2Ev, @function
_ZNSt7__cxx1112basic_stringIcSt11char_traitsIcESaIcEE12_Alloc_hiderD2Ev:
.LFB2516:
        .file 3 "/opt/compiler-explorer/gcc-11.2.0/include/c++/11.2.0/bits/basic_string.h"
        .loc 3 158 14
        .cfi_startproc
        push    rbp     #
        .cfi_def_cfa_offset 16
        .cfi_offset 6, -16
        mov     rbp, rsp  #,
        .cfi_def_cfa_register 6
        sub     rsp, 16   #,
        mov     QWORD PTR -8[rbp], rdi    # this, this
        .loc 3 158 14
        mov     rax, QWORD PTR -8[rbp]    # tmp82, this
        mov     rdi, rax  #, tmp82
        call    _ZNSaIcED2Ev@PLT        #
        nop     
        leave   
        .cfi_def_cfa 7, 8
        ret     
        .cfi_endproc
.LFE2516:
        .size   _ZNSt7__cxx1112basic_stringIcSt11char_traitsIcESaIcEE12_Alloc_hiderD2Ev, .-_ZNSt7__cxx1112basic_stringIcSt11char_traitsIcESaIcEE12_Alloc_hiderD2Ev
        .weak   _ZNSt7__cxx1112basic_stringIcSt11char_traitsIcESaIcEE12_Alloc_hiderD1Ev
        .set    _ZNSt7__cxx1112basic_stringIcSt11char_traitsIcESaIcEE12_Alloc_hiderD1Ev,_ZNSt7__cxx1112basic_stringIcSt11char_traitsIcESaIcEE12_Alloc_hiderD2Ev
        .section        .text._ZNSt7__cxx1112basic_stringIcSt11char_traitsIcESaIcEEC2IS3_EEPKcRKS3_,"axG",@progbits,_ZNSt7__cxx1112basic_stringIcSt11char_traitsIcESaIcEEC5IS3_EEPKcRKS3_,comdat
        .align 2
        .weak   _ZNSt7__cxx1112basic_stringIcSt11char_traitsIcESaIcEEC2IS3_EEPKcRKS3_
        .type   _ZNSt7__cxx1112basic_stringIcSt11char_traitsIcESaIcEEC2IS3_EEPKcRKS3_, @function
_ZNSt7__cxx1112basic_stringIcSt11char_traitsIcESaIcEEC2IS3_EEPKcRKS3_:
.LFB2698:
        .loc 3 533 7
        .cfi_startproc
        .cfi_personality 0x9b,DW.ref.__gxx_personality_v0
        .cfi_lsda 0x1b,.LLSDA2698
        push    rbp     #
        .cfi_def_cfa_offset 16
        .cfi_offset 6, -16
        mov     rbp, rsp  #,
        .cfi_def_cfa_register 6
        push    rbx     #
        sub     rsp, 56   #,
        .cfi_offset 3, -24
        mov     QWORD PTR -40[rbp], rdi   # this, this
        mov     QWORD PTR -48[rbp], rsi   # __s, __s
        mov     QWORD PTR -56[rbp], rdx   # __a, __a
        .loc 3 534 9
        mov     rbx, QWORD PTR -40[rbp]   # _1, this
        mov     rax, QWORD PTR -40[rbp]   # tmp90, this
        mov     rdi, rax  #, tmp90
.LEHB13:
        call    _ZNSt7__cxx1112basic_stringIcSt11char_traitsIcESaIcEE13_M_local_dataEv@PLT      #
        mov     rcx, rax  # _2,
        mov     rax, QWORD PTR -56[rbp]   # tmp91, __a
        mov     rdx, rax  #, tmp91
        mov     rsi, rcx  #, _2
        mov     rdi, rbx  #, _1
        call    _ZNSt7__cxx1112basic_stringIcSt11char_traitsIcESaIcEE12_Alloc_hiderC1EPcRKS3_@PLT       #
.LEHE13:
.LBB16:
        .loc 3 536 28
        cmp     QWORD PTR -48[rbp], 0     # __s,
        je      .L73        #,
        .loc 3 536 55 discriminator 1
        mov     rax, QWORD PTR -48[rbp]   # tmp92, __s
        mov     rdi, rax  #, tmp92
.LEHB14:
        call    _ZNSt11char_traitsIcE6lengthEPKc        #
        .loc 3 536 28 discriminator 1
        mov     rdx, QWORD PTR -48[rbp]   # tmp93, __s
        add     rax, rdx  # iftmp.23_6, tmp93
        jmp     .L74      #
.L73:
        .loc 3 536 28 is_stmt 0 discriminator 2
        mov     eax, 1    # iftmp.23_6,
.L74:
        .loc 3 536 16 is_stmt 1 discriminator 5
        mov     QWORD PTR -24[rbp], rax   # __end, iftmp.23_6
        .loc 3 539 14 discriminator 5
        mov     rdx, QWORD PTR -24[rbp]   # tmp94, __end
        mov     rcx, QWORD PTR -48[rbp]   # tmp95, __s
        mov     rax, QWORD PTR -40[rbp]   # tmp96, this
        mov     rsi, rcx  #, tmp95
        mov     rdi, rax  #, tmp96
        call    _ZNSt7__cxx1112basic_stringIcSt11char_traitsIcESaIcEE12_M_constructIPKcEEvT_S8_St20forward_iterator_tag #
.LEHE14:
.LBE16:
        .loc 3 540 7
        jmp     .L77      #
.L76:
        mov     rbx, rax  # tmp97,
        mov     rax, QWORD PTR -40[rbp]   # _5, this
        mov     rdi, rax  #, _5
        call    _ZNSt7__cxx1112basic_stringIcSt11char_traitsIcESaIcEE12_Alloc_hiderD1Ev #
        mov     rax, rbx  # D.62668, tmp97
        mov     rdi, rax  #, D.62668
.LEHB15:
        call    _Unwind_Resume@PLT      #
.LEHE15:
.L77:
        mov     rbx, QWORD PTR -8[rbp]    #,
        leave   
        .cfi_def_cfa 7, 8
        ret     
        .cfi_endproc
.LFE2698:
        .section        .gcc_except_table
.LLSDA2698:
        .byte   0xff
        .byte   0xff
        .byte   0x1
        .uleb128 .LLSDACSE2698-.LLSDACSB2698
.LLSDACSB2698:
        .uleb128 .LEHB13-.LFB2698
        .uleb128 .LEHE13-.LEHB13
        .uleb128 0
        .uleb128 0
        .uleb128 .LEHB14-.LFB2698
        .uleb128 .LEHE14-.LEHB14
        .uleb128 .L76-.LFB2698
        .uleb128 0
        .uleb128 .LEHB15-.LFB2698
        .uleb128 .LEHE15-.LEHB15
        .uleb128 0
        .uleb128 0
.LLSDACSE2698:
        .section        .text._ZNSt7__cxx1112basic_stringIcSt11char_traitsIcESaIcEEC2IS3_EEPKcRKS3_,"axG",@progbits,_ZNSt7__cxx1112basic_stringIcSt11char_traitsIcESaIcEEC5IS3_EEPKcRKS3_,comdat
        .size   _ZNSt7__cxx1112basic_stringIcSt11char_traitsIcESaIcEEC2IS3_EEPKcRKS3_, .-_ZNSt7__cxx1112basic_stringIcSt11char_traitsIcESaIcEEC2IS3_EEPKcRKS3_
        .weak   _ZNSt7__cxx1112basic_stringIcSt11char_traitsIcESaIcEEC1IS3_EEPKcRKS3_
        .set    _ZNSt7__cxx1112basic_stringIcSt11char_traitsIcESaIcEEC1IS3_EEPKcRKS3_,_ZNSt7__cxx1112basic_stringIcSt11char_traitsIcESaIcEEC2IS3_EEPKcRKS3_
        .section        .text._ZSt8distanceIPKcENSt15iterator_traitsIT_E15difference_typeES3_S3_,"axG",@progbits,_ZSt8distanceIPKcENSt15iterator_traitsIT_E15difference_typeES3_S3_,comdat
        .weak   _ZSt8distanceIPKcENSt15iterator_traitsIT_E15difference_typeES3_S3_
        .type   _ZSt8distanceIPKcENSt15iterator_traitsIT_E15difference_typeES3_S3_, @function
_ZSt8distanceIPKcENSt15iterator_traitsIT_E15difference_typeES3_S3_:
.LFB2791:
        .file 4 "/opt/compiler-explorer/gcc-11.2.0/include/c++/11.2.0/bits/stl_iterator_base_funcs.h"
        .loc 4 138 5
        .cfi_startproc
        push    rbp     #
        .cfi_def_cfa_offset 16
        .cfi_offset 6, -16
        mov     rbp, rsp  #,
        .cfi_def_cfa_register 6
        sub     rsp, 16   #,
        mov     QWORD PTR -8[rbp], rdi    # __first, __first
        mov     QWORD PTR -16[rbp], rsi   # __last, __last
        .loc 4 142 33
        lea     rax, -8[rbp]      # tmp86,
        mov     rdi, rax  #, tmp86
        call    _ZSt19__iterator_categoryIPKcENSt15iterator_traitsIT_E17iterator_categoryERKS3_ #
        .loc 4 141 29
        mov     rax, QWORD PTR -8[rbp]    # __first.31_1, __first
        mov     rdx, QWORD PTR -16[rbp]   # tmp87, __last
        mov     rsi, rdx  #, tmp87
        mov     rdi, rax  #, __first.31_1
        call    _ZSt10__distanceIPKcENSt15iterator_traitsIT_E15difference_typeES3_S3_St26random_access_iterator_tag     #
        .loc 4 143 5
        leave   
        .cfi_def_cfa 7, 8
        ret     
        .cfi_endproc
.LFE2791:
        .size   _ZSt8distanceIPKcENSt15iterator_traitsIT_E15difference_typeES3_S3_, .-_ZSt8distanceIPKcENSt15iterator_traitsIT_E15difference_typeES3_S3_
        .section        .rodata
        .align 8
.LC21:
        .string "basic_string::_M_construct null not valid"
        .section        .text._ZNSt7__cxx1112basic_stringIcSt11char_traitsIcESaIcEE12_M_constructIPKcEEvT_S8_St20forward_iterator_tag,"axG",@progbits,_ZNSt7__cxx1112basic_stringIcSt11char_traitsIcESaIcEE12_M_constructIPKcEEvT_S8_St20forward_iterator_tag,comdat
        .align 2
        .weak   _ZNSt7__cxx1112basic_stringIcSt11char_traitsIcESaIcEE12_M_constructIPKcEEvT_S8_St20forward_iterator_tag
        .type   _ZNSt7__cxx1112basic_stringIcSt11char_traitsIcESaIcEE12_M_constructIPKcEEvT_S8_St20forward_iterator_tag, @function
_ZNSt7__cxx1112basic_stringIcSt11char_traitsIcESaIcEE12_M_constructIPKcEEvT_S8_St20forward_iterator_tag:
.LFB2790:
        .file 5 "/opt/compiler-explorer/gcc-11.2.0/include/c++/11.2.0/bits/basic_string.tcc"
        .loc 5 206 7
        .cfi_startproc
        .cfi_personality 0x9b,DW.ref.__gxx_personality_v0
        .cfi_lsda 0x1b,.LLSDA2790
        push    rbp     #
        .cfi_def_cfa_offset 16
        .cfi_offset 6, -16
        mov     rbp, rsp  #,
        .cfi_def_cfa_register 6
        push    rbx     #
        sub     rsp, 56   #,
        .cfi_offset 3, -24
        mov     QWORD PTR -40[rbp], rdi   # this, this
        mov     QWORD PTR -48[rbp], rsi   # __beg, __beg
        mov     QWORD PTR -56[rbp], rdx   # __end, __end
        .loc 5 211 34
        mov     rax, QWORD PTR -48[rbp]   # tmp93, __beg
        mov     rdi, rax  #, tmp93
        call    _ZN9__gnu_cxx17__is_null_pointerIKcEEbPT_       #
        .loc 5 211 42
        test    al, al  # _1
        je      .L81        #,
        .loc 5 211 42 is_stmt 0 discriminator 1
        mov     rax, QWORD PTR -48[rbp]   # tmp94, __beg
        cmp     rax, QWORD PTR -56[rbp]   # tmp94, __end
        je      .L81        #,
        .loc 5 211 42 discriminator 3
        mov     eax, 1    # iftmp.27_10,
        jmp     .L82      #
.L81:
        .loc 5 211 42 discriminator 4
        mov     eax, 0    # iftmp.27_10,
.L82:
        .loc 5 211 2 is_stmt 1 discriminator 6
        test    al, al  # iftmp.27_10
        je      .L83        #,
        .loc 5 212 28
        lea     rax, .LC21[rip]   # tmp95,
        mov     rdi, rax  #, tmp95
.LEHB16:
        call    _ZSt19__throw_logic_errorPKc@PLT        #
.L83:
        .loc 5 215 57
        mov     rdx, QWORD PTR -56[rbp]   # tmp96, __end
        mov     rax, QWORD PTR -48[rbp]   # tmp97, __beg
        mov     rsi, rdx  #, tmp96
        mov     rdi, rax  #, tmp97
        call    _ZSt8distanceIPKcENSt15iterator_traitsIT_E15difference_typeES3_S3_      #
        .loc 5 215 12
        mov     QWORD PTR -24[rbp], rax   # __dnew, _3
        .loc 5 217 13
        mov     rax, QWORD PTR -24[rbp]   # __dnew.28_4, __dnew
        .loc 5 217 2
        cmp     rax, 15   # __dnew.28_4,
        jbe     .L84      #,
        .loc 5 219 13
        lea     rcx, -24[rbp]     # tmp98,
        mov     rax, QWORD PTR -40[rbp]   # tmp99, this
        mov     edx, 0    #,
        mov     rsi, rcx  #, tmp98
        mov     rdi, rax  #, tmp99
        call    _ZNSt7__cxx1112basic_stringIcSt11char_traitsIcESaIcEE9_M_createERmm@PLT #
        mov     rdx, rax  # _5,
        mov     rax, QWORD PTR -40[rbp]   # tmp100, this
        mov     rsi, rdx  #, _5
        mov     rdi, rax  #, tmp100
        call    _ZNSt7__cxx1112basic_stringIcSt11char_traitsIcESaIcEE7_M_dataEPc@PLT    #
        .loc 5 220 17
        mov     rdx, QWORD PTR -24[rbp]   # __dnew.29_6, __dnew
        mov     rax, QWORD PTR -40[rbp]   # tmp101, this
        mov     rsi, rdx  #, __dnew.29_6
        mov     rdi, rax  #, tmp101
        call    _ZNSt7__cxx1112basic_stringIcSt11char_traitsIcESaIcEE11_M_capacityEm@PLT        #
.LEHE16:
.L84:
        .loc 5 225 25
        mov     rax, QWORD PTR -40[rbp]   # tmp102, this
        mov     rdi, rax  #, tmp102
.LEHB17:
        call    _ZNKSt7__cxx1112basic_stringIcSt11char_traitsIcESaIcEE7_M_dataEv@PLT    #
.LEHE17:
        mov     rcx, rax  # _7,
        mov     rdx, QWORD PTR -56[rbp]   # tmp103, __end
        mov     rax, QWORD PTR -48[rbp]   # tmp104, __beg
        mov     rsi, rax  #, tmp104
        mov     rdi, rcx  #, _7
        call    _ZNSt7__cxx1112basic_stringIcSt11char_traitsIcESaIcEE13_S_copy_charsEPcPKcS7_@PLT       #
        .loc 5 232 15
        mov     rdx, QWORD PTR -24[rbp]   # __dnew.30_9, __dnew
        mov     rax, QWORD PTR -40[rbp]   # tmp105, this
        mov     rsi, rdx  #, __dnew.30_9
        mov     rdi, rax  #, tmp105
.LEHB18:
        call    _ZNSt7__cxx1112basic_stringIcSt11char_traitsIcESaIcEE13_M_set_lengthEm@PLT      #
.LEHE18:
        .loc 5 233 7
        jmp     .L89      #
.L87:
        .loc 5 226 2
        mov     rdi, rax  #, _8
        call    __cxa_begin_catch@PLT   #
        .loc 5 228 16
        mov     rax, QWORD PTR -40[rbp]   # tmp107, this
        mov     rdi, rax  #, tmp107
.LEHB19:
        call    _ZNSt7__cxx1112basic_stringIcSt11char_traitsIcESaIcEE10_M_disposeEv@PLT #
        .loc 5 229 6
        call    __cxa_rethrow@PLT       #
.LEHE19:
.L88:
        .loc 5 226 2
        mov     rbx, rax  # tmp108,
        call    __cxa_end_catch@PLT     #
        mov     rax, rbx  # D.62669, tmp108
        mov     rdi, rax  #, D.62669
.LEHB20:
        call    _Unwind_Resume@PLT      #
.LEHE20:
.L89:
        .loc 5 233 7
        mov     rbx, QWORD PTR -8[rbp]    #,
        leave   
        .cfi_def_cfa 7, 8
        ret     
        .cfi_endproc
.LFE2790:
        .section        .gcc_except_table
        .align 4
.LLSDA2790:
        .byte   0xff
        .byte   0x9b
        .uleb128 .LLSDATT2790-.LLSDATTD2790
.LLSDATTD2790:
        .byte   0x1
        .uleb128 .LLSDACSE2790-.LLSDACSB2790
.LLSDACSB2790:
        .uleb128 .LEHB16-.LFB2790
        .uleb128 .LEHE16-.LEHB16
        .uleb128 0
        .uleb128 0
        .uleb128 .LEHB17-.LFB2790
        .uleb128 .LEHE17-.LEHB17
        .uleb128 .L87-.LFB2790
        .uleb128 0x1
        .uleb128 .LEHB18-.LFB2790
        .uleb128 .LEHE18-.LEHB18
        .uleb128 0
        .uleb128 0
        .uleb128 .LEHB19-.LFB2790
        .uleb128 .LEHE19-.LEHB19
        .uleb128 .L88-.LFB2790
        .uleb128 0
        .uleb128 .LEHB20-.LFB2790
        .uleb128 .LEHE20-.LEHB20
        .uleb128 0
        .uleb128 0
.LLSDACSE2790:
        .byte   0x1
        .byte   0
        .align 4
        .long   0

.LLSDATT2790:
        .section        .text._ZNSt7__cxx1112basic_stringIcSt11char_traitsIcESaIcEE12_M_constructIPKcEEvT_S8_St20forward_iterator_tag,"axG",@progbits,_ZNSt7__cxx1112basic_stringIcSt11char_traitsIcESaIcEE12_M_constructIPKcEEvT_S8_St20forward_iterator_tag,comdat
        .size   _ZNSt7__cxx1112basic_stringIcSt11char_traitsIcESaIcEE12_M_constructIPKcEEvT_S8_St20forward_iterator_tag, .-_ZNSt7__cxx1112basic_stringIcSt11char_traitsIcESaIcEE12_M_constructIPKcEEvT_S8_St20forward_iterator_tag
        .section        .text._ZN9__gnu_cxx17__is_null_pointerIKcEEbPT_,"axG",@progbits,_ZN9__gnu_cxx17__is_null_pointerIKcEEbPT_,comdat
        .weak   _ZN9__gnu_cxx17__is_null_pointerIKcEEbPT_
        .type   _ZN9__gnu_cxx17__is_null_pointerIKcEEbPT_, @function
_ZN9__gnu_cxx17__is_null_pointerIKcEEbPT_:
.LFB2830:
        .file 6 "/opt/compiler-explorer/gcc-11.2.0/include/c++/11.2.0/ext/type_traits.h"
        .loc 6 152 5
        .cfi_startproc
        push    rbp     #
        .cfi_def_cfa_offset 16
        .cfi_offset 6, -16
        mov     rbp, rsp  #,
        .cfi_def_cfa_register 6
        mov     QWORD PTR -8[rbp], rdi    # __ptr, __ptr
        .loc 6 153 23
        cmp     QWORD PTR -8[rbp], 0      # __ptr,
        sete    al      #, _2
        .loc 6 153 26
        pop     rbp       #
        .cfi_def_cfa 7, 8
        ret     
        .cfi_endproc
.LFE2830:
        .size   _ZN9__gnu_cxx17__is_null_pointerIKcEEbPT_, .-_ZN9__gnu_cxx17__is_null_pointerIKcEEbPT_
        .section        .text._ZSt19__iterator_categoryIPKcENSt15iterator_traitsIT_E17iterator_categoryERKS3_,"axG",@progbits,_ZSt19__iterator_categoryIPKcENSt15iterator_traitsIT_E17iterator_categoryERKS3_,comdat
        .weak   _ZSt19__iterator_categoryIPKcENSt15iterator_traitsIT_E17iterator_categoryERKS3_
        .type   _ZSt19__iterator_categoryIPKcENSt15iterator_traitsIT_E17iterator_categoryERKS3_, @function
_ZSt19__iterator_categoryIPKcENSt15iterator_traitsIT_E17iterator_categoryERKS3_:
.LFB2831:
        .file 7 "/opt/compiler-explorer/gcc-11.2.0/include/c++/11.2.0/bits/stl_iterator_base_types.h"
        .loc 7 238 5
        .cfi_startproc
        push    rbp     #
        .cfi_def_cfa_offset 16
        .cfi_offset 6, -16
        mov     rbp, rsp  #,
        .cfi_def_cfa_register 6
        mov     QWORD PTR -8[rbp], rdi    # D.61271, D.61271
        .loc 7 239 68
        pop     rbp       #
        .cfi_def_cfa 7, 8
        ret     
        .cfi_endproc
.LFE2831:
        .size   _ZSt19__iterator_categoryIPKcENSt15iterator_traitsIT_E17iterator_categoryERKS3_, .-_ZSt19__iterator_categoryIPKcENSt15iterator_traitsIT_E17iterator_categoryERKS3_
        .section        .text._ZSt10__distanceIPKcENSt15iterator_traitsIT_E15difference_typeES3_S3_St26random_access_iterator_tag,"axG",@progbits,_ZSt10__distanceIPKcENSt15iterator_traitsIT_E15difference_typeES3_S3_St26random_access_iterator_tag,comdat
        .weak   _ZSt10__distanceIPKcENSt15iterator_traitsIT_E15difference_typeES3_S3_St26random_access_iterator_tag
        .type   _ZSt10__distanceIPKcENSt15iterator_traitsIT_E15difference_typeES3_S3_St26random_access_iterator_tag, @function
_ZSt10__distanceIPKcENSt15iterator_traitsIT_E15difference_typeES3_S3_St26random_access_iterator_tag:
.LFB2832:
        .loc 4 98 5
        .cfi_startproc
        push    rbp     #
        .cfi_def_cfa_offset 16
        .cfi_offset 6, -16
        mov     rbp, rsp  #,
        .cfi_def_cfa_register 6
        mov     QWORD PTR -8[rbp], rdi    # __first, __first
        mov     QWORD PTR -16[rbp], rsi   # __last, __last
        .loc 4 104 23
        mov     rax, QWORD PTR -16[rbp]   # tmp84, __last
        sub     rax, QWORD PTR -8[rbp]    # _3, __first
        .loc 4 105 5
        pop     rbp       #
        .cfi_def_cfa 7, 8
        ret     
        .cfi_endproc
.LFE2832:
        .size   _ZSt10__distanceIPKcENSt15iterator_traitsIT_E15difference_typeES3_S3_St26random_access_iterator_tag, .-_ZSt10__distanceIPKcENSt15iterator_traitsIT_E15difference_typeES3_S3_St26random_access_iterator_tag
        .weak   _ZTV13name_of_class
        .section        .data.rel.ro.local._ZTV13name_of_class,"awG",@progbits,_ZTV13name_of_class,comdat
        .align 8
        .type   _ZTV13name_of_class, @object
        .size   _ZTV13name_of_class, 24
_ZTV13name_of_class:
        .quad   0
        .quad   _ZTI13name_of_class
        .quad   _ZN13name_of_class12my_function2Ev
        .weak   _ZTI13name_of_class
        .section        .data.rel.ro._ZTI13name_of_class,"awG",@progbits,_ZTI13name_of_class,comdat
        .align 8
        .type   _ZTI13name_of_class, @object
        .size   _ZTI13name_of_class, 16
_ZTI13name_of_class:
        .quad   _ZTVN10__cxxabiv117__class_type_infoE+16
        .quad   _ZTS13name_of_class
        .weak   _ZTS13name_of_class
        .section        .rodata._ZTS13name_of_class,"aG",@progbits,_ZTS13name_of_class,comdat
        .align 16
        .type   _ZTS13name_of_class, @object
        .size   _ZTS13name_of_class, 16
_ZTS13name_of_class:
        .string "13name_of_class"
        .text
        .type   _Z41__static_initialization_and_destruction_0ii, @function
_Z41__static_initialization_and_destruction_0ii:
.LFB2955:
        .loc 2 373 1
        .cfi_startproc
        push    rbp     #
        .cfi_def_cfa_offset 16
        .cfi_offset 6, -16
        mov     rbp, rsp  #,
        .cfi_def_cfa_register 6
        sub     rsp, 16   #,
        mov     DWORD PTR -4[rbp], edi    # __initialize_p, __initialize_p
        mov     DWORD PTR -8[rbp], esi    # __priority, __priority
        .loc 2 373 1
        cmp     DWORD PTR -4[rbp], 1      # __initialize_p,
        jne     .L98      #,
        .loc 2 373 1 is_stmt 0 discriminator 1
        cmp     DWORD PTR -8[rbp], 65535  # __priority,
        jne     .L98      #,
        .file 8 "/opt/compiler-explorer/gcc-11.2.0/include/c++/11.2.0/iostream"
        .loc 8 74 25 is_stmt 1
        lea     rax, _ZStL8__ioinit[rip]  # tmp82,
        mov     rdi, rax  #, tmp82
        call    _ZNSt8ios_base4InitC1Ev@PLT     #
        lea     rax, __dso_handle[rip]    # tmp83,
        mov     rdx, rax  #, tmp83
        lea     rax, _ZStL8__ioinit[rip]  # tmp84,
        mov     rsi, rax  #, tmp84
        mov     rax, QWORD PTR _ZNSt8ios_base4InitD1Ev@GOTPCREL[rip]      # tmp86,
        mov     rdi, rax  #, tmp85
        call    __cxa_atexit@PLT        #
.L98:
        .loc 2 373 1
        nop     
        leave   
        .cfi_def_cfa 7, 8
        ret     
        .cfi_endproc
.LFE2955:
        .size   _Z41__static_initialization_and_destruction_0ii, .-_Z41__static_initialization_and_destruction_0ii
        .type   _GLOBAL__sub_I__Z14multi_functionPv, @function
_GLOBAL__sub_I__Z14multi_functionPv:
.LFB2956:
        .loc 2 373 1
        .cfi_startproc
        push    rbp     #
        .cfi_def_cfa_offset 16
        .cfi_offset 6, -16
        mov     rbp, rsp  #,
        .cfi_def_cfa_register 6
        .loc 2 373 1
        mov     esi, 65535        #,
        mov     edi, 1    #,
        call    _Z41__static_initialization_and_destruction_0ii #
        pop     rbp       #
        .cfi_def_cfa 7, 8
        ret     
        .cfi_endproc
.LFE2956:
        .size   _GLOBAL__sub_I__Z14multi_functionPv, .-_GLOBAL__sub_I__Z14multi_functionPv
        .section        .init_array,"aw"
        .align 8
        .quad   _GLOBAL__sub_I__Z14multi_functionPv
        .section        .rodata
        .align 8
.LC0:
        .long   1717986918
        .long   1074947686
        .align 4
.LC1:
        .long   1066192077
        .text
.Letext0:
        .file 9 "/opt/compiler-explorer/gcc-11.2.0/lib/gcc/x86_64-linux-gnu/11.2.0/include/stddef.h"
        .file 10 "/usr/include/stdlib.h"
        .file 11 "/usr/include/x86_64-linux-gnu/bits/types.h"
        .file 12 "/usr/include/x86_64-linux-gnu/bits/types/clock_t.h"
        .file 13 "/usr/include/x86_64-linux-gnu/bits/types/time_t.h"
        .file 14 "/usr/include/x86_64-linux-gnu/bits/stdint-intn.h"
        .file 15 "/usr/include/x86_64-linux-gnu/bits/types/struct_timespec.h"
        .file 16 "/usr/include/x86_64-linux-gnu/bits/pthreadtypes.h"
        .file 17 "/opt/compiler-explorer/gcc-11.2.0/include/c++/11.2.0/cstdlib"
        .file 18 "/opt/compiler-explorer/gcc-11.2.0/include/c++/11.2.0/bits/std_abs.h"
        .file 19 "/opt/compiler-explorer/gcc-11.2.0/include/c++/11.2.0/cwchar"
        .file 20 "/opt/compiler-explorer/gcc-11.2.0/include/c++/11.2.0/bits/exception_ptr.h"
        .file 21 "/opt/compiler-explorer/gcc-11.2.0/include/c++/11.2.0/x86_64-linux-gnu/bits/c++config.h"
        .file 22 "/opt/compiler-explorer/gcc-11.2.0/include/c++/11.2.0/type_traits"
        .file 23 "/opt/compiler-explorer/gcc-11.2.0/include/c++/11.2.0/debug/debug.h"
        .file 24 "/opt/compiler-explorer/gcc-11.2.0/include/c++/11.2.0/cstdint"
        .file 25 "/opt/compiler-explorer/gcc-11.2.0/include/c++/11.2.0/clocale"
        .file 26 "/opt/compiler-explorer/gcc-11.2.0/include/c++/11.2.0/bits/allocator.h"
        .file 27 "/opt/compiler-explorer/gcc-11.2.0/include/c++/11.2.0/string_view"
        .file 28 "/opt/compiler-explorer/gcc-11.2.0/include/c++/11.2.0/cstdio"
        .file 29 "/opt/compiler-explorer/gcc-11.2.0/include/c++/11.2.0/bits/alloc_traits.h"
        .file 30 "/opt/compiler-explorer/gcc-11.2.0/include/c++/11.2.0/initializer_list"
        .file 31 "/opt/compiler-explorer/gcc-11.2.0/include/c++/11.2.0/bits/stringfwd.h"
        .file 32 "/opt/compiler-explorer/gcc-11.2.0/include/c++/11.2.0/bits/ios_base.h"
        .file 33 "/opt/compiler-explorer/gcc-11.2.0/include/c++/11.2.0/cwctype"
        .file 34 "/opt/compiler-explorer/gcc-11.2.0/include/c++/11.2.0/bits/ostream.tcc"
        .file 35 "/opt/compiler-explorer/gcc-11.2.0/include/c++/11.2.0/ostream"
        .file 36 "/opt/compiler-explorer/gcc-11.2.0/include/c++/11.2.0/istream"
        .file 37 "/opt/compiler-explorer/gcc-11.2.0/include/c++/11.2.0/iosfwd"
        .file 38 "/opt/compiler-explorer/gcc-11.2.0/include/c++/11.2.0/ctime"
        .file 39 "/opt/compiler-explorer/gcc-11.2.0/include/c++/11.2.0/chrono"
        .file 40 "/opt/compiler-explorer/gcc-11.2.0/include/c++/11.2.0/system_error"
        .file 41 "/opt/compiler-explorer/gcc-11.2.0/include/c++/11.2.0/bits/functexcept.h"
        .file 42 "/opt/compiler-explorer/gcc-11.2.0/include/c++/11.2.0/bits/predefined_ops.h"
        .file 43 "/opt/compiler-explorer/gcc-11.2.0/include/c++/11.2.0/ext/new_allocator.h"
        .file 44 "/opt/compiler-explorer/gcc-11.2.0/include/c++/11.2.0/ext/alloc_traits.h"
        .file 45 "/opt/compiler-explorer/gcc-11.2.0/include/c++/11.2.0/bits/stl_iterator.h"
        .file 46 "/opt/compiler-explorer/gcc-11.2.0/include/c++/11.2.0/stdlib.h"
        .file 47 "<built-in>"
        .file 48 "/usr/include/x86_64-linux-gnu/bits/types/__mbstate_t.h"
        .file 49 "/usr/include/x86_64-linux-gnu/bits/types/__fpos_t.h"
        .file 50 "/usr/include/x86_64-linux-gnu/bits/types/__FILE.h"
        .file 51 "/usr/include/x86_64-linux-gnu/bits/types/struct_FILE.h"
        .file 52 "/usr/include/x86_64-linux-gnu/bits/types/FILE.h"
        .file 53 "/usr/include/stdio.h"
        .file 54 "/usr/include/x86_64-linux-gnu/bits/types/wint_t.h"
        .file 55 "/usr/include/x86_64-linux-gnu/bits/types/mbstate_t.h"
        .file 56 "/usr/include/wchar.h"
        .file 57 "/usr/include/x86_64-linux-gnu/bits/types/struct_tm.h"
        .file 58 "/usr/include/x86_64-linux-gnu/bits/stdint-uintn.h"
        .file 59 "/usr/include/stdint.h"
        .file 60 "/usr/include/locale.h"
        .file 61 "/usr/include/x86_64-linux-gnu/bits/wctype-wchar.h"
        .file 62 "/usr/include/wctype.h"
        .file 63 "/usr/include/time.h"
        .file 64 "/usr/include/pthread.h"
        .section        .data.rel.local.DW.ref._ZTIi,"awG",@progbits,DW.ref._ZTIi,comdat
        .align 8
        .type   DW.ref._ZTIi, @object
        .size   DW.ref._ZTIi, 8
DW.ref._ZTIi:
        .quad   _ZTIi
        .hidden DW.ref.__gxx_personality_v0
        .weak   DW.ref.__gxx_personality_v0
        .section        .data.rel.local.DW.ref.__gxx_personality_v0,"awG",@progbits,DW.ref.__gxx_personality_v0,comdat
        .align 8
        .type   DW.ref.__gxx_personality_v0, @object
        .size   DW.ref.__gxx_personality_v0, 8
DW.ref.__gxx_personality_v0:
        .quad   __gxx_personality_v0
        .hidden __dso_handle
        .ident  "GCC: (Compiler-Explorer-Build-gcc--binutils-2.36.1) 11.2.0"
        .section        .note.GNU-stack,"",@progbits
